; Function Attrs: mustprogress uwtable
define void @_ZN7rocksdb11LogToBufferEPNS_9LogBufferEPKcz(ptr noundef %0, ptr noundef readonly captures(none) %1, ...) local_unnamed_addr #0 {
  %3 = alloca [1 x %struct.__va_list_tag], align 16
  %.not = icmp eq ptr %0, null
  br i1 %.not, label %5, label %4

4:                                                ; preds = %2
  call void @llvm.lifetime.start.p0(i64 24, ptr nonnull %3) #13
  call void @llvm.va_start.p0(ptr nonnull %3)
  call void @_ZN7rocksdb9LogBuffer14AddLogToBufferEmPKcP13__va_list_tag(ptr noundef nonnull align 16 dereferenceable(2408) %0, i64 noundef 512, ptr noundef %1, ptr noundef nonnull %3)
  call void @llvm.va_end.p0(ptr nonnull %3)
  call void @llvm.lifetime.end.p0(i64 24, ptr nonnull %3) #13
  br label %5

5:                                                ; preds = %4, %2
  ret void
}